target datalayout = "e-m:e-p270:32:32-p271:32:32-p272:64:64-i64:64-i128:128-f80:128-n8:16:32:64-S128"
target triple = "x86_64-pc-linux-gnu"

%struct.PyStatus = type { i32, ptr, ptr, i32 }

@__func__.pycore_init_types = private unnamed_addr constant [18 x i8] c"pycore_init_types\00", align 1
@.str.160 = private unnamed_addr constant [39 x i8] c"failed to initialize an exception type\00", align 1

; Function Attrs: nounwind uwtable
define internal void @pycore_init_types(ptr dead_on_unwind noalias writable sret(%struct.PyStatus) align 8 %0, ptr noundef %1) #1 {
  %3 = alloca ptr, align 8
  %4 = alloca %struct.PyStatus, align 8
  %5 = alloca %struct.PyStatus, align 8
  %6 = alloca i32, align 4
  %7 = alloca %struct.PyStatus, align 8
  %8 = alloca %struct.PyStatus, align 8
  %9 = alloca %struct.PyStatus, align 8
  %10 = alloca %struct.PyStatus, align 8
  %11 = alloca %struct.PyStatus, align 8
  %12 = alloca %struct.PyStatus, align 8
  %13 = alloca %struct.PyStatus, align 8
  %14 = alloca %struct.PyStatus, align 8
  store ptr %1, ptr %3, align 8, !tbaa !219
  call void @llvm.lifetime.start.p0(i64 32, ptr %4) #14
  call void @llvm.lifetime.start.p0(i64 32, ptr %5) #14
  %15 = load ptr, ptr %3, align 8, !tbaa !219
  call void @_PyTypes_InitTypes(ptr dead_on_unwind writable sret(%struct.PyStatus) align 8 %5, ptr noundef %15)
  call void @llvm.memcpy.p0.p0.i64(ptr align 8 %4, ptr align 8 %5, i64 32, i1 false), !tbaa.struct !197
  call void @llvm.lifetime.end.p0(i64 32, ptr %5) #14
  %16 = getelementptr inbounds nuw %struct.PyStatus, ptr %4, i32 0, i32 0
  %17 = load i32, ptr %16, align 8, !tbaa !8
  %18 = icmp ne i32 %17, 0
  br i1 %18, label %19, label %20

19:                                               ; preds = %2
  call void @llvm.memcpy.p0.p0.i64(ptr align 8 %0, ptr align 8 %4, i64 32, i1 false), !tbaa.struct !197
  store i32 1, ptr %6, align 4
  br label %81

20:                                               ; preds = %2
  call void @llvm.lifetime.start.p0(i64 32, ptr %7) #14
  %21 = load ptr, ptr %3, align 8, !tbaa !219
  call void @_PyLong_InitTypes(ptr dead_on_unwind writable sret(%struct.PyStatus) align 8 %7, ptr noundef %21)
  call void @llvm.memcpy.p0.p0.i64(ptr align 8 %4, ptr align 8 %7, i64 32, i1 false), !tbaa.struct !197
  call void @llvm.lifetime.end.p0(i64 32, ptr %7) #14
  %22 = getelementptr inbounds nuw %struct.PyStatus, ptr %4, i32 0, i32 0
  %23 = load i32, ptr %22, align 8, !tbaa !8
  %24 = icmp ne i32 %23, 0
  br i1 %24, label %25, label %26

25:                                               ; preds = %20
  call void @llvm.memcpy.p0.p0.i64(ptr align 8 %0, ptr align 8 %4, i64 32, i1 false), !tbaa.struct !197
  store i32 1, ptr %6, align 4
  br label %81

26:                                               ; preds = %20
  call void @llvm.lifetime.start.p0(i64 32, ptr %8) #14
  %27 = load ptr, ptr %3, align 8, !tbaa !219
  call void @_PyUnicode_InitTypes(ptr dead_on_unwind writable sret(%struct.PyStatus) align 8 %8, ptr noundef %27)
  call void @llvm.memcpy.p0.p0.i64(ptr align 8 %4, ptr align 8 %8, i64 32, i1 false), !tbaa.struct !197
  call void @llvm.lifetime.end.p0(i64 32, ptr %8) #14
  %28 = getelementptr inbounds nuw %struct.PyStatus, ptr %4, i32 0, i32 0
  %29 = load i32, ptr %28, align 8, !tbaa !8
  %30 = icmp ne i32 %29, 0
  br i1 %30, label %31, label %32

31:                                               ; preds = %26
  call void @llvm.memcpy.p0.p0.i64(ptr align 8 %0, ptr align 8 %4, i64 32, i1 false), !tbaa.struct !197
  store i32 1, ptr %6, align 4
  br label %81

32:                                               ; preds = %26
  call void @llvm.lifetime.start.p0(i64 32, ptr %9) #14
  %33 = load ptr, ptr %3, align 8, !tbaa !219
  call void @_PyFloat_InitTypes(ptr dead_on_unwind writable sret(%struct.PyStatus) align 8 %9, ptr noundef %33)
  call void @llvm.memcpy.p0.p0.i64(ptr align 8 %4, ptr align 8 %9, i64 32, i1 false), !tbaa.struct !197
  call void @llvm.lifetime.end.p0(i64 32, ptr %9) #14
  %34 = getelementptr inbounds nuw %struct.PyStatus, ptr %4, i32 0, i32 0
  %35 = load i32, ptr %34, align 8, !tbaa !8
  %36 = icmp ne i32 %35, 0
  br i1 %36, label %37, label %38

37:                                               ; preds = %32
  call void @llvm.memcpy.p0.p0.i64(ptr align 8 %0, ptr align 8 %4, i64 32, i1 false), !tbaa.struct !197
  store i32 1, ptr %6, align 4
  br label %81

38:                                               ; preds = %32
  %39 = load ptr, ptr %3, align 8, !tbaa !219
  %40 = call i32 @_PyExc_InitTypes(ptr noundef %39)
  %41 = icmp slt i32 %40, 0
  br i1 %41, label %42, label %49

42:                                               ; preds = %38
  %43 = getelementptr inbounds nuw %struct.PyStatus, ptr %0, i32 0, i32 0
  store i32 1, ptr %43, align 8, !tbaa !8
  %44 = getelementptr i8, ptr %0, i64 4
  call void @llvm.memset.p0.i64(ptr align 4 %44, i8 0, i64 4, i1 false)
  %45 = getelementptr inbounds nuw %struct.PyStatus, ptr %0, i32 0, i32 1
  store ptr @__func__.pycore_init_types, ptr %45, align 8, !tbaa !194
  %46 = getelementptr inbounds nuw %struct.PyStatus, ptr %0, i32 0, i32 2
  store ptr @.str.160, ptr %46, align 8, !tbaa !195
  %47 = getelementptr inbounds nuw %struct.PyStatus, ptr %0, i32 0, i32 3
  store i32 0, ptr %47, align 8, !tbaa !196
  %48 = getelementptr i8, ptr %0, i64 28
  call void @llvm.memset.p0.i64(ptr align 4 %48, i8 0, i64 4, i1 false)
  store i32 1, ptr %6, align 4
  br label %81

49:                                               ; preds = %38
  call void @llvm.lifetime.start.p0(i64 32, ptr %10) #14
  %50 = load ptr, ptr %3, align 8, !tbaa !219
  call void @_PyExc_InitGlobalObjects(ptr dead_on_unwind writable sret(%struct.PyStatus) align 8 %10, ptr noundef %50)
  call void @llvm.memcpy.p0.p0.i64(ptr align 8 %4, ptr align 8 %10, i64 32, i1 false), !tbaa.struct !197
  call void @llvm.lifetime.end.p0(i64 32, ptr %10) #14
  %51 = getelementptr inbounds nuw %struct.PyStatus, ptr %4, i32 0, i32 0
  %52 = load i32, ptr %51, align 8, !tbaa !8
  %53 = icmp ne i32 %52, 0
  br i1 %53, label %54, label %55

54:                                               ; preds = %49
  call void @llvm.memcpy.p0.p0.i64(ptr align 8 %0, ptr align 8 %4, i64 32, i1 false), !tbaa.struct !197
  store i32 1, ptr %6, align 4
  br label %81

55:                                               ; preds = %49
  call void @llvm.lifetime.start.p0(i64 32, ptr %11) #14
  %56 = load ptr, ptr %3, align 8, !tbaa !219
  call void @_PyExc_InitState(ptr dead_on_unwind writable sret(%struct.PyStatus) align 8 %11, ptr noundef %56)
  call void @llvm.memcpy.p0.p0.i64(ptr align 8 %4, ptr align 8 %11, i64 32, i1 false), !tbaa.struct !197
  call void @llvm.lifetime.end.p0(i64 32, ptr %11) #14
  %57 = getelementptr inbounds nuw %struct.PyStatus, ptr %4, i32 0, i32 0
  %58 = load i32, ptr %57, align 8, !tbaa !8
  %59 = icmp ne i32 %58, 0
  br i1 %59, label %60, label %61

60:                                               ; preds = %55
  call void @llvm.memcpy.p0.p0.i64(ptr align 8 %0, ptr align 8 %4, i64 32, i1 false), !tbaa.struct !197
  store i32 1, ptr %6, align 4
  br label %81

61:                                               ; preds = %55
  call void @llvm.lifetime.start.p0(i64 32, ptr %12) #14
  %62 = load ptr, ptr %3, align 8, !tbaa !219
  call void @_PyErr_InitTypes(ptr dead_on_unwind writable sret(%struct.PyStatus) align 8 %12, ptr noundef %62)
  call void @llvm.memcpy.p0.p0.i64(ptr align 8 %4, ptr align 8 %12, i64 32, i1 false), !tbaa.struct !197
  call void @llvm.lifetime.end.p0(i64 32, ptr %12) #14
  %63 = getelementptr inbounds nuw %struct.PyStatus, ptr %4, i32 0, i32 0
  %64 = load i32, ptr %63, align 8, !tbaa !8
  %65 = icmp ne i32 %64, 0
  br i1 %65, label %66, label %67

66:                                               ; preds = %61
  call void @llvm.memcpy.p0.p0.i64(ptr align 8 %0, ptr align 8 %4, i64 32, i1 false), !tbaa.struct !197
  store i32 1, ptr %6, align 4
  br label %81

67:                                               ; preds = %61
  call void @llvm.lifetime.start.p0(i64 32, ptr %13) #14
  %68 = load ptr, ptr %3, align 8, !tbaa !219
  call void @_PyContext_Init(ptr dead_on_unwind writable sret(%struct.PyStatus) align 8 %13, ptr noundef %68)
  call void @llvm.memcpy.p0.p0.i64(ptr align 8 %4, ptr align 8 %13, i64 32, i1 false), !tbaa.struct !197
  call void @llvm.lifetime.end.p0(i64 32, ptr %13) #14
  %69 = getelementptr inbounds nuw %struct.PyStatus, ptr %4, i32 0, i32 0
  %70 = load i32, ptr %69, align 8, !tbaa !8
  %71 = icmp ne i32 %70, 0
  br i1 %71, label %72, label %73

72:                                               ; preds = %67
  call void @llvm.memcpy.p0.p0.i64(ptr align 8 %0, ptr align 8 %4, i64 32, i1 false), !tbaa.struct !197
  store i32 1, ptr %6, align 4
  br label %81

73:                                               ; preds = %67
  call void @llvm.lifetime.start.p0(i64 32, ptr %14) #14
  %74 = load ptr, ptr %3, align 8, !tbaa !219
  call void @_PyXI_InitTypes(ptr dead_on_unwind writable sret(%struct.PyStatus) align 8 %14, ptr noundef %74)
  call void @llvm.memcpy.p0.p0.i64(ptr align 8 %4, ptr align 8 %14, i64 32, i1 false), !tbaa.struct !197
  call void @llvm.lifetime.end.p0(i64 32, ptr %14) #14
  %75 = getelementptr inbounds nuw %struct.PyStatus, ptr %4, i32 0, i32 0
  %76 = load i32, ptr %75, align 8, !tbaa !8
  %77 = icmp ne i32 %76, 0
  br i1 %77, label %78, label %79

78:                                               ; preds = %73
  call void @llvm.memcpy.p0.p0.i64(ptr align 8 %0, ptr align 8 %4, i64 32, i1 false), !tbaa.struct !197
  store i32 1, ptr %6, align 4
  br label %81

79:                                               ; preds = %73
  call void @llvm.memset.p0.i64(ptr align 8 %0, i8 0, i64 32, i1 false)
  %80 = getelementptr inbounds nuw %struct.PyStatus, ptr %0, i32 0, i32 0
  store i32 0, ptr %80, align 8, !tbaa !8
  store i32 1, ptr %6, align 4
  br label %81

81:                                               ; preds = %79, %78, %72, %66, %60, %54, %42, %37, %31, %25, %19
  call void @llvm.lifetime.end.p0(i64 32, ptr %4) #14
  ret void
}