; Function Attrs: nounwind uwtable
define internal fastcc void @pycore_init_types(ptr dead_on_unwind noalias nonnull writable writeonly align 8 captures(none) initializes((0, 32)) %0, ptr noundef %1) unnamed_addr #1 {
  %.sroa.29 = alloca [28 x i8], align 4
  %3 = alloca %struct.PyStatus, align 8
  %4 = alloca %struct.PyStatus, align 8
  %5 = alloca %struct.PyStatus, align 8
  %6 = alloca %struct.PyStatus, align 8
  %7 = alloca %struct.PyStatus, align 8
  %8 = alloca %struct.PyStatus, align 8
  %9 = alloca %struct.PyStatus, align 8
  %10 = alloca %struct.PyStatus, align 8
  %11 = alloca %struct.PyStatus, align 8
  call void @llvm.lifetime.start.p0(i64 28, ptr nonnull %.sroa.29)
  call void @llvm.lifetime.start.p0(i64 32, ptr nonnull %3) #23
  call void @_PyTypes_InitTypes(ptr dead_on_unwind nonnull writable sret(%struct.PyStatus) align 8 %3, ptr noundef %1) #23
  %.sroa.0.0.copyload = load i32, ptr %3, align 8, !tbaa !191
  %.sroa.29.0..sroa_idx = getelementptr inbounds nuw i8, ptr %3, i64 4
  call void @llvm.memcpy.p0.p0.i64(ptr noundef nonnull align 4 dereferenceable(28) %.sroa.29, ptr noundef nonnull align 4 dereferenceable(28) %.sroa.29.0..sroa_idx, i64 28, i1 false), !tbaa.struct !192
  call void @llvm.lifetime.end.p0(i64 32, ptr nonnull %3) #23
  %.not = icmp eq i32 %.sroa.0.0.copyload, 0
  br i1 %.not, label %13, label %12

12:                                               ; preds = %2
  store i32 %.sroa.0.0.copyload, ptr %0, align 8, !tbaa !191
  %.sroa.29.0..sroa_idx26 = getelementptr inbounds nuw i8, ptr %0, i64 4
  call void @llvm.memcpy.p0.p0.i64(ptr noundef nonnull align 4 dereferenceable(28) %.sroa.29.0..sroa_idx26, ptr noundef nonnull align 4 dereferenceable(28) %.sroa.29, i64 28, i1 false), !tbaa.struct !192
  br label %39

13:                                               ; preds = %2
  call void @llvm.lifetime.start.p0(i64 32, ptr nonnull %4) #23
  call void @_PyLong_InitTypes(ptr dead_on_unwind nonnull writable sret(%struct.PyStatus) align 8 %4, ptr noundef %1) #23
  %.sroa.0.0.copyload10 = load i32, ptr %4, align 8, !tbaa !191
  %.sroa.29.0..sroa_idx27 = getelementptr inbounds nuw i8, ptr %4, i64 4
  call void @llvm.memcpy.p0.p0.i64(ptr noundef nonnull align 4 dereferenceable(28) %.sroa.29, ptr noundef nonnull align 4 dereferenceable(28) %.sroa.29.0..sroa_idx27, i64 28, i1 false), !tbaa.struct !192
  call void @llvm.lifetime.end.p0(i64 32, ptr nonnull %4) #23
  %.not52 = icmp eq i32 %.sroa.0.0.copyload10, 0
  br i1 %.not52, label %15, label %14

14:                                               ; preds = %13
  store i32 %.sroa.0.0.copyload10, ptr %0, align 8, !tbaa !191
  %.sroa.29.0..sroa_idx28 = getelementptr inbounds nuw i8, ptr %0, i64 4
  call void @llvm.memcpy.p0.p0.i64(ptr noundef nonnull align 4 dereferenceable(28) %.sroa.29.0..sroa_idx28, ptr noundef nonnull align 4 dereferenceable(28) %.sroa.29, i64 28, i1 false), !tbaa.struct !192
  br label %39

15:                                               ; preds = %13
  call void @llvm.lifetime.start.p0(i64 32, ptr nonnull %5) #23
  call void @_PyUnicode_InitTypes(ptr dead_on_unwind nonnull writable sret(%struct.PyStatus) align 8 %5, ptr noundef %1) #23
  %.sroa.0.0.copyload12 = load i32, ptr %5, align 8, !tbaa !191
  %.sroa.29.0..sroa_idx29 = getelementptr inbounds nuw i8, ptr %5, i64 4
  call void @llvm.memcpy.p0.p0.i64(ptr noundef nonnull align 4 dereferenceable(28) %.sroa.29, ptr noundef nonnull align 4 dereferenceable(28) %.sroa.29.0..sroa_idx29, i64 28, i1 false), !tbaa.struct !192
  call void @llvm.lifetime.end.p0(i64 32, ptr nonnull %5) #23
  %.not53 = icmp eq i32 %.sroa.0.0.copyload12, 0
  br i1 %.not53, label %17, label %16

16:                                               ; preds = %15
  store i32 %.sroa.0.0.copyload12, ptr %0, align 8, !tbaa !191
  %.sroa.29.0..sroa_idx30 = getelementptr inbounds nuw i8, ptr %0, i64 4
  call void @llvm.memcpy.p0.p0.i64(ptr noundef nonnull align 4 dereferenceable(28) %.sroa.29.0..sroa_idx30, ptr noundef nonnull align 4 dereferenceable(28) %.sroa.29, i64 28, i1 false), !tbaa.struct !192
  br label %39

17:                                               ; preds = %15
  call void @llvm.lifetime.start.p0(i64 32, ptr nonnull %6) #23
  call void @_PyFloat_InitTypes(ptr dead_on_unwind nonnull writable sret(%struct.PyStatus) align 8 %6, ptr noundef %1) #23
  %.sroa.0.0.copyload14 = load i32, ptr %6, align 8, !tbaa !191
  %.sroa.29.0..sroa_idx31 = getelementptr inbounds nuw i8, ptr %6, i64 4
  call void @llvm.memcpy.p0.p0.i64(ptr noundef nonnull align 4 dereferenceable(28) %.sroa.29, ptr noundef nonnull align 4 dereferenceable(28) %.sroa.29.0..sroa_idx31, i64 28, i1 false), !tbaa.struct !192
  call void @llvm.lifetime.end.p0(i64 32, ptr nonnull %6) #23
  %.not54 = icmp eq i32 %.sroa.0.0.copyload14, 0
  br i1 %.not54, label %19, label %18

18:                                               ; preds = %17
  store i32 %.sroa.0.0.copyload14, ptr %0, align 8, !tbaa !191
  %.sroa.29.0..sroa_idx32 = getelementptr inbounds nuw i8, ptr %0, i64 4
  call void @llvm.memcpy.p0.p0.i64(ptr noundef nonnull align 4 dereferenceable(28) %.sroa.29.0..sroa_idx32, ptr noundef nonnull align 4 dereferenceable(28) %.sroa.29, i64 28, i1 false), !tbaa.struct !192
  br label %39

19:                                               ; preds = %17
  %20 = call i32 @_PyExc_InitTypes(ptr noundef %1) #23
  %21 = icmp slt i32 %20, 0
  br i1 %21, label %22, label %28

22:                                               ; preds = %19
  store i32 1, ptr %0, align 8, !tbaa !183
  %23 = getelementptr inbounds nuw i8, ptr %0, i64 4
  store i32 0, ptr %23, align 4
  %24 = getelementptr inbounds nuw i8, ptr %0, i64 8
  store ptr @__func__.pycore_init_types, ptr %24, align 8, !tbaa !185
  %25 = getelementptr inbounds nuw i8, ptr %0, i64 16
  store ptr @.str.160, ptr %25, align 8, !tbaa !186
  %26 = getelementptr inbounds nuw i8, ptr %0, i64 24
  store i32 0, ptr %26, align 8, !tbaa !187
  %27 = getelementptr inbounds nuw i8, ptr %0, i64 28
  store i32 0, ptr %27, align 4
  br label %39

28:                                               ; preds = %19
  call void @llvm.lifetime.start.p0(i64 32, ptr nonnull %7) #23
  call void @_PyExc_InitGlobalObjects(ptr dead_on_unwind nonnull writable sret(%struct.PyStatus) align 8 %7, ptr noundef %1) #23
  %.sroa.0.0.copyload16 = load i32, ptr %7, align 8, !tbaa !191
  %.sroa.29.0..sroa_idx33 = getelementptr inbounds nuw i8, ptr %7, i64 4
  call void @llvm.memcpy.p0.p0.i64(ptr noundef nonnull align 4 dereferenceable(28) %.sroa.29, ptr noundef nonnull align 4 dereferenceable(28) %.sroa.29.0..sroa_idx33, i64 28, i1 false), !tbaa.struct !192
  call void @llvm.lifetime.end.p0(i64 32, ptr nonnull %7) #23
  %.not55 = icmp eq i32 %.sroa.0.0.copyload16, 0
  br i1 %.not55, label %30, label %29

29:                                               ; preds = %28
  store i32 %.sroa.0.0.copyload16, ptr %0, align 8, !tbaa !191
  %.sroa.29.0..sroa_idx34 = getelementptr inbounds nuw i8, ptr %0, i64 4
  call void @llvm.memcpy.p0.p0.i64(ptr noundef nonnull align 4 dereferenceable(28) %.sroa.29.0..sroa_idx34, ptr noundef nonnull align 4 dereferenceable(28) %.sroa.29, i64 28, i1 false), !tbaa.struct !192
  br label %39

30:                                               ; preds = %28
  call void @llvm.lifetime.start.p0(i64 32, ptr nonnull %8) #23
  call void @_PyExc_InitState(ptr dead_on_unwind nonnull writable sret(%struct.PyStatus) align 8 %8, ptr noundef %1) #23
  %.sroa.0.0.copyload18 = load i32, ptr %8, align 8, !tbaa !191
  %.sroa.29.0..sroa_idx35 = getelementptr inbounds nuw i8, ptr %8, i64 4
  call void @llvm.memcpy.p0.p0.i64(ptr noundef nonnull align 4 dereferenceable(28) %.sroa.29, ptr noundef nonnull align 4 dereferenceable(28) %.sroa.29.0..sroa_idx35, i64 28, i1 false), !tbaa.struct !192
  call void @llvm.lifetime.end.p0(i64 32, ptr nonnull %8) #23
  %.not56 = icmp eq i32 %.sroa.0.0.copyload18, 0
  br i1 %.not56, label %32, label %31

31:                                               ; preds = %30
  store i32 %.sroa.0.0.copyload18, ptr %0, align 8, !tbaa !191
  %.sroa.29.0..sroa_idx36 = getelementptr inbounds nuw i8, ptr %0, i64 4
  call void @llvm.memcpy.p0.p0.i64(ptr noundef nonnull align 4 dereferenceable(28) %.sroa.29.0..sroa_idx36, ptr noundef nonnull align 4 dereferenceable(28) %.sroa.29, i64 28, i1 false), !tbaa.struct !192
  br label %39

32:                                               ; preds = %30
  call void @llvm.lifetime.start.p0(i64 32, ptr nonnull %9) #23
  call void @_PyErr_InitTypes(ptr dead_on_unwind nonnull writable sret(%struct.PyStatus) align 8 %9, ptr noundef %1) #23
  %.sroa.0.0.copyload20 = load i32, ptr %9, align 8, !tbaa !191
  %.sroa.29.0..sroa_idx37 = getelementptr inbounds nuw i8, ptr %9, i64 4
  call void @llvm.memcpy.p0.p0.i64(ptr noundef nonnull align 4 dereferenceable(28) %.sroa.29, ptr noundef nonnull align 4 dereferenceable(28) %.sroa.29.0..sroa_idx37, i64 28, i1 false), !tbaa.struct !192
  call void @llvm.lifetime.end.p0(i64 32, ptr nonnull %9) #23
  %.not57 = icmp eq i32 %.sroa.0.0.copyload20, 0
  br i1 %.not57, label %34, label %33

33:                                               ; preds = %32
  store i32 %.sroa.0.0.copyload20, ptr %0, align 8, !tbaa !191
  %.sroa.29.0..sroa_idx38 = getelementptr inbounds nuw i8, ptr %0, i64 4
  call void @llvm.memcpy.p0.p0.i64(ptr noundef nonnull align 4 dereferenceable(28) %.sroa.29.0..sroa_idx38, ptr noundef nonnull align 4 dereferenceable(28) %.sroa.29, i64 28, i1 false), !tbaa.struct !192
  br label %39

34:                                               ; preds = %32
  call void @llvm.lifetime.start.p0(i64 32, ptr nonnull %10) #23
  call void @_PyContext_Init(ptr dead_on_unwind nonnull writable sret(%struct.PyStatus) align 8 %10, ptr noundef %1) #23
  %.sroa.0.0.copyload22 = load i32, ptr %10, align 8, !tbaa !191
  %.sroa.29.0..sroa_idx39 = getelementptr inbounds nuw i8, ptr %10, i64 4
  call void @llvm.memcpy.p0.p0.i64(ptr noundef nonnull align 4 dereferenceable(28) %.sroa.29, ptr noundef nonnull align 4 dereferenceable(28) %.sroa.29.0..sroa_idx39, i64 28, i1 false), !tbaa.struct !192
  call void @llvm.lifetime.end.p0(i64 32, ptr nonnull %10) #23
  %.not58 = icmp eq i32 %.sroa.0.0.copyload22, 0
  br i1 %.not58, label %36, label %35

35:                                               ; preds = %34
  store i32 %.sroa.0.0.copyload22, ptr %0, align 8, !tbaa !191
  %.sroa.29.0..sroa_idx40 = getelementptr inbounds nuw i8, ptr %0, i64 4
  call void @llvm.memcpy.p0.p0.i64(ptr noundef nonnull align 4 dereferenceable(28) %.sroa.29.0..sroa_idx40, ptr noundef nonnull align 4 dereferenceable(28) %.sroa.29, i64 28, i1 false), !tbaa.struct !192
  br label %39

36:                                               ; preds = %34
  call void @llvm.lifetime.start.p0(i64 32, ptr nonnull %11) #23
  call void @_PyXI_InitTypes(ptr dead_on_unwind nonnull writable sret(%struct.PyStatus) align 8 %11, ptr noundef %1) #23
  %.sroa.0.0.copyload24 = load i32, ptr %11, align 8, !tbaa !191
  %.sroa.29.0..sroa_idx41 = getelementptr inbounds nuw i8, ptr %11, i64 4
  call void @llvm.memcpy.p0.p0.i64(ptr noundef nonnull align 4 dereferenceable(28) %.sroa.29, ptr noundef nonnull align 4 dereferenceable(28) %.sroa.29.0..sroa_idx41, i64 28, i1 false), !tbaa.struct !192
  call void @llvm.lifetime.end.p0(i64 32, ptr nonnull %11) #23
  %.not59 = icmp eq i32 %.sroa.0.0.copyload24, 0
  br i1 %.not59, label %38, label %37

37:                                               ; preds = %36
  store i32 %.sroa.0.0.copyload24, ptr %0, align 8, !tbaa !191
  %.sroa.29.0..sroa_idx42 = getelementptr inbounds nuw i8, ptr %0, i64 4
  call void @llvm.memcpy.p0.p0.i64(ptr noundef nonnull align 4 dereferenceable(28) %.sroa.29.0..sroa_idx42, ptr noundef nonnull align 4 dereferenceable(28) %.sroa.29, i64 28, i1 false), !tbaa.struct !192
  br label %39

38:                                               ; preds = %36
  call void @llvm.memset.p0.i64(ptr noundef nonnull align 8 dereferenceable(32) %0, i8 0, i64 32, i1 false)
  br label %39

39:                                               ; preds = %38, %37, %35, %33, %31, %29, %22, %18, %16, %14, %12
  call void @llvm.lifetime.end.p0(i64 28, ptr nonnull %.sroa.29)
  ret void
}